; Function Attrs: mustprogress uwtable
define hidden void @_ZN4cvc58internal6theory2bv21BitVectorToBVTypeRule14preComputeTypeEPNS0_11NodeManagerENS0_12NodeTemplateILb0EEE(ptr dead_on_unwind noalias writable sret(%"class.cvc5::internal::TypeNode") align 8 %0, ptr noundef %1, ptr noundef readonly captures(none) %2) local_unnamed_addr #3 align 2 {
  %4 = load ptr, ptr %2, align 8, !tbaa !19
  %5 = getelementptr inbounds nuw i8, ptr %4, i64 8
  %6 = load i64, ptr %5, align 8
  %7 = trunc i64 %6 to i32
  %8 = and i32 %7, 1023
  %9 = icmp eq i32 %8, 1023
  %10 = select i1 %9, i32 -1, i32 %8
  %11 = tail call noundef i32 @_ZN4cvc58internal4kind10metaKindOfENS1_6Kind_tE(i32 noundef %10)
  %12 = icmp eq i32 %11, 2
  %13 = load i64, ptr %5, align 8
  %14 = lshr i64 %13, 32
  %15 = and i64 %14, 67108863
  %16 = sext i1 %12 to i64
  %17 = add nsw i64 %15, %16
  %18 = trunc nsw i64 %17 to i32
  tail call void @_ZN4cvc58internal11NodeManager15mkBitVectorTypeEj(ptr dead_on_unwind writable sret(%"class.cvc5::internal::TypeNode") align 8 %0, ptr noundef nonnull align 8 dereferenceable(3560) %1, i32 noundef %18)
  ret void
}